(dp0
Vengine
p1
Vpdflatex
p2
sVsynctex
p3
I01
sVpackages
p4
c__builtin__
set
p5
((lp6
Vhyperref
p7
aVgeometry
p8
aVepstopdf
p9
aVparskip
p10
aVgraphicx
p11
aVamssymb
p12
atp13
Rp14
sVfiles_with_guttermarks
p15
g5
((lp16
S'sohams-notes.tex'
p17
atp18
Rp19
s.